target datalayout = "e-m:e-p270:32:32-p271:32:32-p272:64:64-i64:64-i128:128-f80:128-n8:16:32:64-S128"
target triple = "x86_64-pc-linux-gnu"

%struct.pmix_list_t = type { %struct.pmix_object_t, %struct.pmix_list_item_t, i64 }
%struct.pmix_object_t = type { %union.pthread_mutex_t, ptr, i32, %struct.pmix_tma }
%union.pthread_mutex_t = type { %struct.__pthread_mutex_s }
%struct.__pthread_mutex_s = type { i32, i32, i32, i32, i32, i16, i16, %struct.__pthread_internal_list }
%struct.__pthread_internal_list = type { ptr, ptr }
%struct.pmix_tma = type { ptr, ptr, ptr, ptr, ptr, ptr, ptr, ptr }
%struct.pmix_list_item_t = type { %struct.pmix_object_t, ptr, ptr, i32 }
%struct.pmix_value = type { i16, %union.anon }
%union.anon = type { %struct.pmix_envar_t }
%struct.pmix_envar_t = type { ptr, ptr, i8 }
%struct.pmix_infolist_t = type { %struct.pmix_list_item_t, %struct.pmix_info }
%struct.pmix_info = type { [512 x i8], i32, %struct.pmix_value }

; Function Attrs: inlinehint nounwind uwtable
define internal ptr @pmix_list_get_last(ptr noundef %0) #8 {
  %2 = alloca ptr, align 8
  %3 = alloca ptr, align 8
  store ptr %0, ptr %2, align 8, !tbaa !114
  call void @llvm.lifetime.start.p0(i64 8, ptr %3) #15
  %4 = load ptr, ptr %2, align 8, !tbaa !114
  %5 = getelementptr inbounds nuw %struct.pmix_list_t, ptr %4, i32 0, i32 1
  %6 = getelementptr inbounds nuw %struct.pmix_list_item_t, ptr %5, i32 0, i32 2
  %7 = load ptr, ptr %6, align 8, !tbaa !144
  store ptr %7, ptr %3, align 8, !tbaa !132
  %8 = load ptr, ptr %3, align 8, !tbaa !132
  call void @llvm.lifetime.end.p0(i64 8, ptr %3) #15
  ret ptr %8
}

; Function Attrs: inlinehint nounwind uwtable
define internal ptr @pmix_list_get_first(ptr noundef %0) #8 {
  %2 = alloca ptr, align 8
  %3 = alloca ptr, align 8
  store ptr %0, ptr %2, align 8, !tbaa !114
  call void @llvm.lifetime.start.p0(i64 8, ptr %3) #15
  %4 = load ptr, ptr %2, align 8, !tbaa !114
  %5 = getelementptr inbounds nuw %struct.pmix_list_t, ptr %4, i32 0, i32 1
  %6 = getelementptr inbounds nuw %struct.pmix_list_item_t, ptr %5, i32 0, i32 1
  %7 = load ptr, ptr %6, align 8, !tbaa !138
  store ptr %7, ptr %3, align 8, !tbaa !132
  %8 = load ptr, ptr %3, align 8, !tbaa !132
  call void @llvm.lifetime.end.p0(i64 8, ptr %3) #15
  ret ptr %8
}

; Function Attrs: nounwind uwtable
define ptr @PMIx_Info_list_get_info(ptr noundef %0, ptr noundef %1, ptr noundef %2) #0 {
  %4 = alloca ptr, align 8
  %5 = alloca ptr, align 8
  %6 = alloca ptr, align 8
  %7 = alloca ptr, align 8
  %8 = alloca ptr, align 8
  %9 = alloca ptr, align 8
  store ptr %0, ptr %4, align 8, !tbaa !8
  store ptr %1, ptr %5, align 8, !tbaa !8
  store ptr %2, ptr %6, align 8, !tbaa !8
  call void @llvm.lifetime.start.p0(i64 8, ptr %7) #15
  %10 = load ptr, ptr %4, align 8, !tbaa !8
  store ptr %10, ptr %7, align 8, !tbaa !114
  call void @llvm.lifetime.start.p0(i64 8, ptr %8) #15
  %11 = load ptr, ptr %5, align 8, !tbaa !8
  store ptr %11, ptr %8, align 8, !tbaa !132
  call void @llvm.lifetime.start.p0(i64 8, ptr %9) #15
  %12 = load ptr, ptr %5, align 8, !tbaa !8
  %13 = icmp eq ptr null, %12
  br i1 %13, label %14, label %18

14:                                               ; preds = %3
  %15 = load ptr, ptr %7, align 8, !tbaa !114
  %16 = call ptr @pmix_list_get_first(ptr noundef %15)
  store ptr %16, ptr %8, align 8, !tbaa !132
  %17 = load ptr, ptr %8, align 8, !tbaa !132
  store ptr %17, ptr %9, align 8, !tbaa !8
  br label %20

18:                                               ; preds = %3
  %19 = load ptr, ptr %8, align 8, !tbaa !132
  store ptr %19, ptr %9, align 8, !tbaa !8
  br label %20

20:                                               ; preds = %18, %14
  %21 = load ptr, ptr %8, align 8, !tbaa !132
  %22 = load ptr, ptr %7, align 8, !tbaa !114
  %23 = call ptr @pmix_list_get_last(ptr noundef %22)
  %24 = icmp eq ptr %21, %23
  br i1 %24, label %25, label %27

25:                                               ; preds = %20
  %26 = load ptr, ptr %6, align 8, !tbaa !8
  store ptr null, ptr %26, align 8, !tbaa !8
  br label %38

27:                                               ; preds = %20
  %28 = load ptr, ptr %8, align 8, !tbaa !132
  %29 = icmp ne ptr %28, null
  br i1 %29, label %30, label %34

30:                                               ; preds = %27
  %31 = load ptr, ptr %8, align 8, !tbaa !132
  %32 = getelementptr inbounds nuw %struct.pmix_list_item_t, ptr %31, i32 0, i32 1
  %33 = load ptr, ptr %32, align 8, !tbaa !134
  br label %35

34:                                               ; preds = %27
  br label %35

35:                                               ; preds = %34, %30
  %36 = phi ptr [ %33, %30 ], [ null, %34 ]
  %37 = load ptr, ptr %6, align 8, !tbaa !8
  store ptr %36, ptr %37, align 8, !tbaa !8
  br label %38

38:                                               ; preds = %35, %25
  %39 = load ptr, ptr %9, align 8, !tbaa !8
  %40 = getelementptr inbounds nuw %struct.pmix_infolist_t, ptr %39, i32 0, i32 1
  call void @llvm.lifetime.end.p0(i64 8, ptr %9) #15
  call void @llvm.lifetime.end.p0(i64 8, ptr %8) #15
  call void @llvm.lifetime.end.p0(i64 8, ptr %7) #15
  ret ptr %40
}