; Function Attrs: mustprogress nofree norecurse nosync nounwind willreturn memory(read, argmem: readwrite, inaccessiblemem: none) uwtable
define nonnull ptr @PMIx_Info_list_get_info(ptr noundef readonly captures(none) %0, ptr noundef readonly captures(address, ret: address, provenance) %1, ptr noundef writeonly captures(none) initializes((0, 8)) %2) local_unnamed_addr #12 {
  %4 = icmp eq ptr %1, null
  br i1 %4, label %5, label %7

5:                                                ; preds = %3
  %6 = getelementptr i8, ptr %0, i64 240
  %.val = load ptr, ptr %6, align 8, !tbaa !151
  br label %7

7:                                                ; preds = %3, %5
  %.0 = phi ptr [ %.val, %5 ], [ %1, %3 ]
  %8 = getelementptr i8, ptr %0, i64 248
  %.val15 = load ptr, ptr %8, align 8, !tbaa !154
  %9 = icmp eq ptr %.0, %.val15
  %.not = icmp eq ptr %.0, null
  %or.cond = or i1 %.not, %9
  br i1 %or.cond, label %13, label %10

10:                                               ; preds = %7
  %11 = getelementptr inbounds nuw i8, ptr %.0, i64 120
  %12 = load ptr, ptr %11, align 8, !tbaa !148
  br label %13

13:                                               ; preds = %10, %7
  %storemerge = phi ptr [ null, %7 ], [ %12, %10 ]
  store ptr %storemerge, ptr %2, align 8, !tbaa !26
  %14 = getelementptr inbounds nuw i8, ptr %.0, i64 144
  ret ptr %14
}